target datalayout = "e-m:e-p270:32:32-p271:32:32-p272:64:64-i64:64-i128:128-f80:128-n8:16:32:64-S128"
target triple = "x86_64-pc-linux-gnu"

%"struct.std::atomic" = type { %"struct.std::__atomic_base" }
%"struct.std::__atomic_base" = type { i64 }
%"class.std::shared_ptr" = type { %"class.std::__shared_ptr" }
%"class.std::__shared_ptr" = type { ptr, %"class.std::__shared_count" }
%"class.std::__shared_count" = type { ptr }
%"class.rocksdb::ShardedCacheBase" = type { %"class.rocksdb::Cache", %"struct.std::atomic", i32, i32, i8, i64, %"class.rocksdb::port::Mutex" }
%"class.rocksdb::Cache" = type { %"class.rocksdb::Customizable", %"class.std::shared_ptr", %"class.std::function" }
%"class.rocksdb::Customizable" = type { %"class.rocksdb::Configurable" }
%"class.rocksdb::Configurable" = type { ptr, %"class.std::vector" }
%"class.std::vector" = type { %"struct.std::_Vector_base" }
%"struct.std::_Vector_base" = type { %"struct.std::_Vector_base<rocksdb::Configurable::RegisteredOptions, std::allocator<rocksdb::Configurable::RegisteredOptions>>::_Vector_impl" }
%"struct.std::_Vector_base<rocksdb::Configurable::RegisteredOptions, std::allocator<rocksdb::Configurable::RegisteredOptions>>::_Vector_impl" = type { %"struct.std::_Vector_base<rocksdb::Configurable::RegisteredOptions, std::allocator<rocksdb::Configurable::RegisteredOptions>>::_Vector_impl_data" }
%"struct.std::_Vector_base<rocksdb::Configurable::RegisteredOptions, std::allocator<rocksdb::Configurable::RegisteredOptions>>::_Vector_impl_data" = type { ptr, ptr, ptr }
%"class.std::function" = type { %"class.std::_Function_base", ptr }
%"class.std::_Function_base" = type { %"union.std::_Any_data", ptr }
%"union.std::_Any_data" = type { %"union.std::_Nocopy_types" }
%"union.std::_Nocopy_types" = type { { i64, i64 } }
%"class.rocksdb::port::Mutex" = type { %union.pthread_mutex_t }
%union.pthread_mutex_t = type { %struct.__pthread_mutex_s }
%struct.__pthread_mutex_s = type { i32, i32, i32, i32, i32, i16, i16, %struct.__pthread_internal_list }
%struct.__pthread_internal_list = type { ptr, ptr }

; Function Attrs: mustprogress nounwind uwtable
define noundef i32 @_ZNK7rocksdb16ShardedCacheBase12GetNumShardsEv(ptr noundef nonnull align 8 dereferenceable(152) %0) #1 align 2 {
  %2 = alloca ptr, align 8
  store ptr %0, ptr %2, align 8, !tbaa !4
  %3 = load ptr, ptr %2, align 8
  %4 = getelementptr inbounds nuw %"class.rocksdb::ShardedCacheBase", ptr %3, i32 0, i32 2
  %5 = load i32, ptr %4, align 8, !tbaa !27
  %6 = add i32 %5, 1
  ret i32 %6
}

; Function Attrs: mustprogress uwtable
define noundef i64 @_ZNK7rocksdb16ShardedCacheBase23ComputePerShardCapacityEm(ptr noundef nonnull align 8 dereferenceable(152) %0, i64 noundef %1) #0 align 2 {
  %3 = alloca ptr, align 8
  %4 = alloca i64, align 8
  %5 = alloca i32, align 4
  store ptr %0, ptr %3, align 8, !tbaa !4
  store i64 %1, ptr %4, align 8, !tbaa !59
  %6 = load ptr, ptr %3, align 8
  call void @llvm.lifetime.start.p0(i64 4, ptr %5) #12
  %7 = call noundef i32 @_ZNK7rocksdb16ShardedCacheBase12GetNumShardsEv(ptr noundef nonnull align 8 dereferenceable(152) %6)
  store i32 %7, ptr %5, align 4, !tbaa !60
  %8 = load i64, ptr %4, align 8, !tbaa !59
  %9 = load i32, ptr %5, align 4, !tbaa !60
  %10 = sub i32 %9, 1
  %11 = zext i32 %10 to i64
  %12 = add i64 %8, %11
  %13 = load i32, ptr %5, align 4, !tbaa !60
  %14 = zext i32 %13 to i64
  %15 = udiv i64 %12, %14
  call void @llvm.lifetime.end.p0(i64 4, ptr %5) #12
  ret i64 %15
}

; Function Attrs: mustprogress uwtable
define noundef i64 @_ZNK7rocksdb16ShardedCacheBase19GetPerShardCapacityEv(ptr noundef nonnull align 8 dereferenceable(152) %0) #0 align 2 {
  %2 = alloca ptr, align 8
  store ptr %0, ptr %2, align 8, !tbaa !4
  %3 = load ptr, ptr %2, align 8
  %4 = load ptr, ptr %3, align 8, !tbaa !11
  %5 = getelementptr inbounds ptr, ptr %4, i64 30
  %6 = load ptr, ptr %5, align 8
  %7 = call noundef i64 %6(ptr noundef nonnull align 8 dereferenceable(152) %3)
  %8 = call noundef i64 @_ZNK7rocksdb16ShardedCacheBase23ComputePerShardCapacityEm(ptr noundef nonnull align 8 dereferenceable(152) %3, i64 noundef %7)
  ret i64 %8
}