; Function Attrs: mustprogress uwtable
define noundef i64 @_ZNK7rocksdb16ShardedCacheBase19GetPerShardCapacityEv(ptr noundef nonnull align 8 dereferenceable(152) %0) local_unnamed_addr #0 align 2 {
  %2 = load ptr, ptr %0, align 8, !tbaa !16
  %3 = getelementptr inbounds nuw i8, ptr %2, i64 240
  %4 = load ptr, ptr %3, align 8
  %5 = tail call noundef i64 %4(ptr noundef nonnull align 8 dereferenceable(152) %0)
  %6 = getelementptr inbounds nuw i8, ptr %0, i64 88
  %7 = load i32, ptr %6, align 8, !tbaa !29
  %8 = add i32 %7, 1
  %9 = zext i32 %7 to i64
  %10 = add i64 %5, %9
  %11 = zext i32 %8 to i64
  %12 = udiv i64 %10, %11
  ret i64 %12
}